CSEG AT 0000h
  0000 020006		LJMP L0001

L0004:
  0003 020088		LJMP L0005

L0001:
  0006 758107		MOV SP, #7h
  0009 120186		LCALL L0002
  000C E582  		MOV A, DPL
  000E 6003  		JZ L0003
  0010 020003		LJMP L0004

L0003:
  0013 7900  		MOV R1, #0h
  0015 E9    		MOV A, R1
  0016 4400  		ORL A, #0h
  0018 601B  		JZ L0024
  001A 7A00  		MOV R2, #0h
  001C 90018A		MOV DPTR, #018Ah
  001F 7801  		MOV R0, #1h
  0021 75A000		MOV P2, #0h
L0026:
  0024 E4    		CLR A
  0025 93    		MOVC A, @A+DPTR
  0026 F2    		MOVX @R0, A
  0027 A3    		INC DPTR
  0028 08    		INC R0
  0029 B80002		CJNE R0, #0h, L0025
  002C 05A0  		INC P2
L0025:
  002E D9F4  		DJNZ R1, L0026
  0030 DAF2  		DJNZ R2, L0026
  0032 75A0FF		MOV P2, #0FFh
L0024:
  0035 E4    		CLR A
  0036 78FF  		MOV R0, #0FFh
L0027:
  0038 F6    		MOV @R0, A
  0039 D8FD  		DJNZ R0, L0027
  003B 7800  		MOV R0, #0h
  003D E8    		MOV A, R0
  003E 4400  		ORL A, #0h
  0040 600A  		JZ L0028
  0042 7901  		MOV R1, #1h
  0044 75A000		MOV P2, #0h
  0047 E4    		CLR A
L0029:
  0048 F3    		MOVX @R1, A
  0049 09    		INC R1
  004A D8FC  		DJNZ R0, L0029
L0028:
  004C 7800  		MOV R0, #0h
  004E E8    		MOV A, R0
  004F 4400  		ORL A, #0h
  0051 600C  		JZ L0030
  0053 7900  		MOV R1, #0h
  0055 900001		MOV DPTR, #0001h
  0058 E4    		CLR A
L0031:
  0059 F0    		MOVX @DPTR, A
  005A A3    		INC DPTR
  005B D8FC  		DJNZ R0, L0031
  005D D9FA  		DJNZ R1, L0031
L0030:
  005F 020003		LJMP L0004

L0021:
  0062 75B0DE		MOV P3, #0DEh
  0065 75A0DE		MOV P2, #0DEh
  0068 7590DE		MOV P1, #0DEh
  006B 7580DE		MOV P0, #0DEh
  006E 75B0AD		MOV P3, #0ADh
  0071 75A0AD		MOV P2, #0ADh
  0074 7590AD		MOV P1, #0ADh
  0077 7580AD		MOV P0, #0ADh
  007A 75B000		MOV P3, #0h
  007D 75A000		MOV P2, #0h
  0080 759000		MOV P1, #0h
  0083 758000		MOV P0, #0h
L0022:
  0086 80FE  		SJMP L0022

L0005:
  0088 7E01  		MOV R6, #1h
  008A 7F00  		MOV R7, #0h
  008C 7C00  		MOV R4, #0h
  008E 7D00  		MOV R5, #0h
L0007:
  0090 8C82  		MOV DPL, R4
  0092 74E0  		MOV A, #0E0h
  0094 2D    		ADD A, R5
  0095 F583  		MOV DPH, A
  0097 8C03  		MOV 3h, R4
  0099 EB    		MOV A, R3
  009A F0    		MOVX @DPTR, A
  009B 0C    		INC R4
  009C BC0001		CJNE R4, #0h, L0006
  009F 0D    		INC R5
L0006:
  00A0 C3    		CLR C
  00A1 EC    		MOV A, R4
  00A2 9420  		SUBB A, #20h
  00A4 ED    		MOV A, R5
  00A5 6480  		XRL A, #80h
  00A7 9480  		SUBB A, #80h
  00A9 40E5  		JC L0007
  00AB 90FF02		MOV DPTR, #0FF02h
  00AE E4    		CLR A
  00AF F0    		MOVX @DPTR, A
  00B0 74E0  		MOV A, #0E0h
  00B2 A3    		INC DPTR
  00B3 F0    		MOVX @DPTR, A
  00B4 90FF04		MOV DPTR, #0FF04h
  00B7 7420  		MOV A, #20h
  00B9 F0    		MOVX @DPTR, A
  00BA E4    		CLR A
  00BB A3    		INC DPTR
  00BC F0    		MOVX @DPTR, A
  00BD 7C00  		MOV R4, #0h
  00BF 7D00  		MOV R5, #0h
L0009:
  00C1 EC    		MOV A, R4
  00C2 2410  		ADD A, #10h
  00C4 F582  		MOV DPL, A
  00C6 ED    		MOV A, R5
  00C7 34FF  		ADDC A, #0FFh
  00C9 F583  		MOV DPH, A
  00CB 8C03  		MOV 3h, R4
  00CD EB    		MOV A, R3
  00CE F5F0  		MOV B, A
  00D0 A4    		MUL AB
  00D1 8BF0  		MOV B, R3
  00D3 A4    		MUL AB
  00D4 FB    		MOV R3, A
  00D5 F0    		MOVX @DPTR, A
  00D6 0C    		INC R4
  00D7 BC0001		CJNE R4, #0h, L0008
  00DA 0D    		INC R5
L0008:
  00DB C3    		CLR C
  00DC EC    		MOV A, R4
  00DD 9410  		SUBB A, #10h
  00DF ED    		MOV A, R5
  00E0 6480  		XRL A, #80h
  00E2 9480  		SUBB A, #80h
  00E4 40DB  		JC L0009
  00E6 7C00  		MOV R4, #0h
  00E8 7D00  		MOV R5, #0h
L0011:
  00EA EC    		MOV A, R4
  00EB 2420  		ADD A, #20h
  00ED F582  		MOV DPL, A
  00EF ED    		MOV A, R5
  00F0 34FF  		ADDC A, #0FFh
  00F2 F583  		MOV DPH, A
  00F4 8C03  		MOV 3h, R4
  00F6 EB    		MOV A, R3
  00F7 C4    		SWAP A
  00F8 54F0  		ANL A, #0F0h
  00FA FB    		MOV R3, A
  00FB 33    		RLC A
  00FC 95E0  		SUBB A, ACC
  00FE FA    		MOV R2, A
  00FF EC    		MOV A, R4
  0100 4203  		ORL 3h, A
  0102 ED    		MOV A, R5
  0103 4202  		ORL 2h, A
  0105 EB    		MOV A, R3
  0106 F0    		MOVX @DPTR, A
  0107 0C    		INC R4
  0108 BC0001		CJNE R4, #0h, L0010
  010B 0D    		INC R5
L0010:
  010C C3    		CLR C
  010D EC    		MOV A, R4
  010E 9410  		SUBB A, #10h
  0110 ED    		MOV A, R5
  0111 6480  		XRL A, #80h
  0113 9480  		SUBB A, #80h
  0115 40D3  		JC L0011
  0117 90FF00		MOV DPTR, #0FF00h
  011A 7401  		MOV A, #1h
  011C F0    		MOVX @DPTR, A
L0012:
  011D 90FF01		MOV DPTR, #0FF01h
  0120 E0    		MOVX A, @DPTR
  0121 E0    		MOVX A, @DPTR
  0122 70F9  		JNZ L0012
  0124 FC    		MOV R4, A
  0125 FD    		MOV R5, A
L0014:
  0126 8C82  		MOV DPL, R4
  0128 74E0  		MOV A, #0E0h
  012A 2D    		ADD A, R5
  012B F583  		MOV DPH, A
  012D E0    		MOVX A, @DPTR
  012E F580  		MOV P0, A
  0130 0C    		INC R4
  0131 BC0001		CJNE R4, #0h, L0013
  0134 0D    		INC R5
L0013:
  0135 C3    		CLR C
  0136 EC    		MOV A, R4
  0137 9420  		SUBB A, #20h
  0139 ED    		MOV A, R5
  013A 6480  		XRL A, #80h
  013C 9480  		SUBB A, #80h
  013E 40E6  		JC L0014
  0140 90FF00		MOV DPTR, #0FF00h
  0143 7401  		MOV A, #1h
  0145 F0    		MOVX @DPTR, A
L0016:
  0146 90FF01		MOV DPTR, #0FF01h
  0149 E0    		MOVX A, @DPTR
  014A E0    		MOVX A, @DPTR
  014B 6006  		JZ L0015
  014D 00    		NOP
  014E 00    		NOP
  014F 00    		NOP
  0150 00    		NOP
  0151 80F3  		SJMP L0016

L0015:
  0153 7C00  		MOV R4, #0h
  0155 7D00  		MOV R5, #0h
L0020:
  0157 8C82  		MOV DPL, R4
  0159 74E0  		MOV A, #0E0h
  015B 2D    		ADD A, R5
  015C F583  		MOV DPH, A
  015E E0    		MOVX A, @DPTR
  015F FB    		MOV R3, A
  0160 7A00  		MOV R2, #0h
  0162 B50406		CJNE A, 4h, L0017
  0165 EA    		MOV A, R2
  0166 B50502		CJNE A, 5h, L0017
  0169 8006  		SJMP L0018

L0017:
  016B 7E00  		MOV R6, #0h
  016D 7F00  		MOV R7, #0h
  016F 8010  		SJMP L0023

L0018:
  0171 0C    		INC R4
  0172 BC0001		CJNE R4, #0h, L0019
  0175 0D    		INC R5
L0019:
  0176 C3    		CLR C
  0177 EC    		MOV A, R4
  0178 9420  		SUBB A, #20h
  017A ED    		MOV A, R5
  017B 6480  		XRL A, #80h
  017D 9480  		SUBB A, #80h
  017F 40D6  		JC L0020
L0023:
  0181 8E80  		MOV P0, R6
  0183 020062		LJMP L0021

L0002:
  0186 758200		MOV DPL, #0h
  0189 22    		RET

END
