CSEG AT 0000h
L0006:
  0000 020006		LJMP L0001

L0004:
  0003 020088		LJMP L0005

L0001:
  0006 758107		MOV SP, #7h
  0009 12009F		LCALL L0002
  000C E582  		MOV A, DPL
  000E 6003  		JZ L0003
  0010 020003		LJMP L0004

L0003:
  0013 7900  		MOV R1, #0h
  0015 E9    		MOV A, R1
  0016 4400  		ORL A, #0h
  0018 601B  		JZ L0011
  001A 7A00  		MOV R2, #0h
  001C 9000A3		MOV DPTR, #00A3h
  001F 7801  		MOV R0, #1h
  0021 75A000		MOV P2, #0h
L0013:
  0024 E4    		CLR A
  0025 93    		MOVC A, @A+DPTR
  0026 F2    		MOVX @R0, A
  0027 A3    		INC DPTR
  0028 08    		INC R0
  0029 B80002		CJNE R0, #0h, L0012
  002C 05A0  		INC P2
L0012:
  002E D9F4  		DJNZ R1, L0013
  0030 DAF2  		DJNZ R2, L0013
  0032 75A0FF		MOV P2, #0FFh
L0011:
  0035 E4    		CLR A
  0036 78FF  		MOV R0, #0FFh
L0014:
  0038 F6    		MOV @R0, A
  0039 D8FD  		DJNZ R0, L0014
  003B 7800  		MOV R0, #0h
  003D E8    		MOV A, R0
  003E 4400  		ORL A, #0h
  0040 600A  		JZ L0015
  0042 7901  		MOV R1, #1h
  0044 75A000		MOV P2, #0h
  0047 E4    		CLR A
L0016:
  0048 F3    		MOVX @R1, A
  0049 09    		INC R1
  004A D8FC  		DJNZ R0, L0016
L0015:
  004C 7800  		MOV R0, #0h
  004E E8    		MOV A, R0
  004F 4400  		ORL A, #0h
  0051 600C  		JZ L0017
  0053 7900  		MOV R1, #0h
  0055 900001		MOV DPTR, #0001h
  0058 E4    		CLR A
L0018:
  0059 F0    		MOVX @DPTR, A
  005A A3    		INC DPTR
  005B D8FC  		DJNZ R0, L0018
  005D D9FA  		DJNZ R1, L0018
L0017:
  005F 020003		LJMP L0004

L0009:
  0062 75B0DE		MOV P3, #0DEh
  0065 75A0DE		MOV P2, #0DEh
  0068 7590DE		MOV P1, #0DEh
  006B 7580DE		MOV P0, #0DEh
  006E 75B0AD		MOV P3, #0ADh
  0071 75A0AD		MOV P2, #0ADh
  0074 7590AD		MOV P1, #0ADh
  0077 7580AD		MOV P0, #0ADh
  007A 75B000		MOV P3, #0h
  007D 75A000		MOV P2, #0h
  0080 759000		MOV P1, #0h
  0083 758000		MOV P0, #0h
L0010:
  0086 80FE  		SJMP L0010

L0005:
  0088 7800  		MOV R0, #0h
  008A 758F00		MOV 8Fh, #0h
  008D 758E9A		MOV 8Eh, #9Ah
L0008:
  0090 A50000		ECALL L0006
  0093 E8    		MOV A, R0
  0094 9405  		SUBB A, #5h
  0096 6004  		JZ L0007
  0098 80F6  		SJMP L0008

  009A 08    		DB 008h 
  009B 32    		DB 032h ; '2'
L0007:
  009C 020062		LJMP L0009

L0002:
  009F 758200		MOV DPL, #0h
  00A2 22    		RET

END
