CSEG AT 0000h
  0000 020008		LJMP L0001

L0004:
  0003 12008A		LCALL L0005
L0006:
  0006 80FE  		SJMP L0006

L0001:
  0008 758107		MOV SP, #7h
  000B 1200FF		LCALL L0002
  000E E582  		MOV A, DPL
  0010 6003  		JZ L0003
  0012 020003		LJMP L0004

L0003:
  0015 7900  		MOV R1, #0h
  0017 E9    		MOV A, R1
  0018 4400  		ORL A, #0h
  001A 601B  		JZ L0018
  001C 7A00  		MOV R2, #0h
  001E 900103		MOV DPTR, #0103h
  0021 7800  		MOV R0, #0h
  0023 75A000		MOV P2, #0h
L0020:
  0026 E4    		CLR A
  0027 93    		MOVC A, @A+DPTR
  0028 F2    		MOVX @R0, A
  0029 A3    		INC DPTR
  002A 08    		INC R0
  002B B80002		CJNE R0, #0h, L0019
  002E 05A0  		INC P2
L0019:
  0030 D9F4  		DJNZ R1, L0020
  0032 DAF2  		DJNZ R2, L0020
  0034 75A0FF		MOV P2, #0FFh
L0018:
  0037 E4    		CLR A
  0038 78FF  		MOV R0, #0FFh
L0021:
  003A F6    		MOV @R0, A
  003B D8FD  		DJNZ R0, L0021
  003D 7800  		MOV R0, #0h
  003F E8    		MOV A, R0
  0040 4400  		ORL A, #0h
  0042 600A  		JZ L0022
  0044 7900  		MOV R1, #0h
  0046 75A000		MOV P2, #0h
  0049 E4    		CLR A
L0023:
  004A F3    		MOVX @R1, A
  004B 09    		INC R1
  004C D8FC  		DJNZ R0, L0023
L0022:
  004E 7800  		MOV R0, #0h
  0050 E8    		MOV A, R0
  0051 4400  		ORL A, #0h
  0053 600C  		JZ L0024
  0055 7900  		MOV R1, #0h
  0057 900000		MOV DPTR, #0000h
  005A E4    		CLR A
L0025:
  005B F0    		MOVX @DPTR, A
  005C A3    		INC DPTR
  005D D8FC  		DJNZ R0, L0025
  005F D9FA  		DJNZ R1, L0025
L0024:
  0061 020003		LJMP L0004

L0016:
  0064 75B0DE		MOV P3, #0DEh
  0067 75A0DE		MOV P2, #0DEh
  006A 7590DE		MOV P1, #0DEh
  006D 7580DE		MOV P0, #0DEh
  0070 75B0AD		MOV P3, #0ADh
  0073 75A0AD		MOV P2, #0ADh
  0076 7590AD		MOV P1, #0ADh
  0079 7580AD		MOV P0, #0ADh
  007C 75B000		MOV P3, #0h
  007F 75A000		MOV P2, #0h
  0082 759000		MOV P1, #0h
  0085 758000		MOV P0, #0h
L0017:
  0088 80FE  		SJMP L0017

L0005:
  008A 758010		MOV P0, #10h
  008D 0192  		AJMP L0007

  008F 02    		DB 002h 
  0090 00    		DB 000h 
  0091 F9    		DB 0F9h 
L0007:
  0092 758011		MOV P0, #11h
  0095 00    		NOP
  0096 019B  		AJMP L0008

  0098 02    		DB 002h 
  0099 00    		DB 000h 
  009A F9    		DB 0F9h 
L0008:
  009B 758012		MOV P0, #12h
  009E 00    		NOP
  009F 00    		NOP
  00A0 01A5  		AJMP L0009

  00A2 02    		DB 002h 
  00A3 00    		DB 000h 
  00A4 F9    		DB 0F9h 
L0009:
  00A5 758013		MOV P0, #13h
  00A8 00    		NOP
  00A9 00    		NOP
  00AA 00    		NOP
  00AB 01B0  		AJMP L0010

  00AD 02    		DB 002h 
  00AE 00    		DB 000h 
  00AF F9    		DB 0F9h 
L0010:
  00B0 758014		MOV P0, #14h
  00B3 00    		NOP
  00B4 00    		NOP
  00B5 00    		NOP
  00B6 00    		NOP
  00B7 01BC  		AJMP L0011

  00B9 02    		DB 002h 
  00BA 00    		DB 000h 
  00BB F9    		DB 0F9h 
L0011:
  00BC 758015		MOV P0, #15h
  00BF 00    		NOP
  00C0 00    		NOP
  00C1 00    		NOP
  00C2 00    		NOP
  00C3 00    		NOP
  00C4 01C9  		AJMP L0012

  00C6 02    		DB 002h 
  00C7 00    		DB 000h 
  00C8 F9    		DB 0F9h 
L0012:
  00C9 758016		MOV P0, #16h
  00CC 00    		NOP
  00CD 00    		NOP
  00CE 00    		NOP
  00CF 00    		NOP
  00D0 00    		NOP
  00D1 00    		NOP
  00D2 01D7  		AJMP L0013

  00D4 02    		DB 002h 
  00D5 00    		DB 000h 
  00D6 F9    		DB 0F9h 
L0013:
  00D7 758017		MOV P0, #17h
  00DA 00    		NOP
  00DB 00    		NOP
  00DC 00    		NOP
  00DD 00    		NOP
  00DE 00    		NOP
  00DF 00    		NOP
  00E0 00    		NOP
  00E1 01E6  		AJMP L0014

  00E3 02    		DB 002h 
  00E4 00    		DB 000h 
  00E5 F9    		DB 0F9h 
L0014:
  00E6 758018		MOV P0, #18h
  00E9 00    		NOP
  00EA 00    		NOP
  00EB 00    		NOP
  00EC 00    		NOP
  00ED 00    		NOP
  00EE 00    		NOP
  00EF 00    		NOP
  00F0 00    		NOP
  00F1 01F6  		AJMP L0015

  00F3 02    		DB 002h 
  00F4 00    		DB 000h 
  00F5 F9    		DB 0F9h 
L0015:
  00F6 758019		MOV P0, #19h
  00F9 7580FF		MOV P0, #0FFh
  00FC 020064		LJMP L0016

L0002:
  00FF 758200		MOV DPL, #0h
  0102 22    		RET

END
