CSEG AT 0000h
  0000 020008		LJMP L0001

L0004:
  0003 12008A		LCALL L0005
L0006:
  0006 80FE  		SJMP L0006

L0001:
  0008 758107		MOV SP, #7h
  000B 1200B2		LCALL L0002
  000E E582  		MOV A, DPL
  0010 6003  		JZ L0003
  0012 020003		LJMP L0004

L0003:
  0015 7900  		MOV R1, #0h
  0017 E9    		MOV A, R1
  0018 4400  		ORL A, #0h
  001A 601B  		JZ L0013
  001C 7A00  		MOV R2, #0h
  001E 9000B6		MOV DPTR, #00B6h
  0021 7800  		MOV R0, #0h
  0023 75A000		MOV P2, #0h
L0015:
  0026 E4    		CLR A
  0027 93    		MOVC A, @A+DPTR
  0028 F2    		MOVX @R0, A
  0029 A3    		INC DPTR
  002A 08    		INC R0
  002B B80002		CJNE R0, #0h, L0014
  002E 05A0  		INC P2
L0014:
  0030 D9F4  		DJNZ R1, L0015
  0032 DAF2  		DJNZ R2, L0015
  0034 75A0FF		MOV P2, #0FFh
L0013:
  0037 E4    		CLR A
  0038 78FF  		MOV R0, #0FFh
L0016:
  003A F6    		MOV @R0, A
  003B D8FD  		DJNZ R0, L0016
  003D 7800  		MOV R0, #0h
  003F E8    		MOV A, R0
  0040 4400  		ORL A, #0h
  0042 600A  		JZ L0017
  0044 7900  		MOV R1, #0h
  0046 75A000		MOV P2, #0h
  0049 E4    		CLR A
L0018:
  004A F3    		MOVX @R1, A
  004B 09    		INC R1
  004C D8FC  		DJNZ R0, L0018
L0017:
  004E 7800  		MOV R0, #0h
  0050 E8    		MOV A, R0
  0051 4400  		ORL A, #0h
  0053 600C  		JZ L0019
  0055 7900  		MOV R1, #0h
  0057 900000		MOV DPTR, #0000h
  005A E4    		CLR A
L0020:
  005B F0    		MOVX @DPTR, A
  005C A3    		INC DPTR
  005D D8FC  		DJNZ R0, L0020
  005F D9FA  		DJNZ R1, L0020
L0019:
  0061 020003		LJMP L0004

L0009:
  0064 75B0DE		MOV P3, #0DEh
  0067 75A0DE		MOV P2, #0DEh
  006A 7590DE		MOV P1, #0DEh
  006D 7580DE		MOV P0, #0DEh
  0070 75B0AD		MOV P3, #0ADh
  0073 75A0AD		MOV P2, #0ADh
  0076 7590AD		MOV P1, #0ADh
  0079 7580AD		MOV P0, #0ADh
  007C 75B000		MOV P3, #0h
  007F 75A000		MOV P2, #0h
  0082 759000		MOV P1, #0h
  0085 758000		MOV P0, #0h
L0010:
  0088 80FE  		SJMP L0010

L0005:
  008A 758080		MOV P0, #80h
  008D D3    		SETB C
  008E 4003  		JC L0007
  0090 0200AC		LJMP L0008

L0007:
  0093 758081		MOV P0, #81h
  0096 C3    		CLR C
  0097 5003  		JNC L0011
  0099 0200AC		LJMP L0008

L0011:
  009C 758082		MOV P0, #82h
  009F 400B  		JC L0008
  00A1 758083		MOV P0, #83h
  00A4 D3    		SETB C
  00A5 5005  		JNC L0008
  00A7 758011		MOV P0, #11h
  00AA 8003  		SJMP L0012

L0008:
  00AC 758000		MOV P0, #0h
L0012:
  00AF 020064		LJMP L0009

L0002:
  00B2 758200		MOV DPL, #0h
  00B5 22    		RET

END
